; Function Attrs: nounwind uwtable
define hidden range(i32 0, 2) i32 @mpd_qcheck_nan(ptr noundef %0, ptr noundef readonly %1, ptr noundef readonly captures(none) %2, ptr noundef %3) local_unnamed_addr #10 {
  %5 = load i8, ptr %1, align 8, !tbaa !19
  %6 = and i8 %5, 12
  %.not = icmp eq i8 %6, 0
  br i1 %.not, label %53, label %7

7:                                                ; preds = %4
  %8 = and i8 %5, 8
  %9 = zext nneg i8 %8 to i32
  %10 = shl nuw nsw i32 %9, 5
  %11 = load i32, ptr %3, align 4, !tbaa !23
  %12 = or i32 %11, %10
  store i32 %12, ptr %3, align 4, !tbaa !23
  %13 = icmp eq ptr %0, %1
  br i1 %13, label %mpd_qcopy.exit, label %14

14:                                               ; preds = %7
  %15 = getelementptr inbounds nuw i8, ptr %1, i64 24
  %16 = load i64, ptr %15, align 8, !tbaa !18
  %17 = load i64, ptr @MPD_MINALLOC, align 8, !tbaa !3
  %18 = tail call i64 @llvm.smax.i64(i64 %16, i64 %17)
  %19 = getelementptr inbounds nuw i8, ptr %0, i64 32
  %20 = load i64, ptr %19, align 8, !tbaa !21
  %21 = icmp eq i64 %18, %20
  %.pre20.i = load i8, ptr %0, align 8, !tbaa !19
  br i1 %21, label %mpd_qresize.exit.thread.i, label %22

22:                                               ; preds = %14
  %23 = and i8 %.pre20.i, 32
  %.not.i.i = icmp eq i8 %23, 0
  br i1 %.not.i.i, label %28, label %24

24:                                               ; preds = %22
  %25 = icmp sgt i64 %18, %20
  br i1 %25, label %26, label %mpd_qresize.exit.thread.i

26:                                               ; preds = %24
  %27 = tail call i32 @mpd_switch_to_dyn(ptr noundef nonnull %0, i64 noundef %18, ptr noundef nonnull %3) #33
  br label %mpd_qresize.exit.i

28:                                               ; preds = %22
  %29 = tail call i32 @mpd_realloc_dyn(ptr noundef nonnull %0, i64 noundef %18, ptr noundef nonnull %3) #33
  br label %mpd_qresize.exit.i

mpd_qresize.exit.i:                               ; preds = %28, %26
  %.0.i.i = phi i32 [ %27, %26 ], [ %29, %28 ]
  %.not.i = icmp eq i32 %.0.i.i, 0
  br i1 %.not.i, label %mpd_qcopy.exit, label %mpd_qresize.exit.mpd_qresize.exit.thread_crit_edge.i

mpd_qresize.exit.mpd_qresize.exit.thread_crit_edge.i: ; preds = %mpd_qresize.exit.i
  %.pre.i = load i8, ptr %0, align 8, !tbaa !19
  %.pre21.i = load i64, ptr %15, align 8, !tbaa !18
  %.pre = load i8, ptr %1, align 8, !tbaa !19
  br label %mpd_qresize.exit.thread.i

mpd_qresize.exit.thread.i:                        ; preds = %mpd_qresize.exit.mpd_qresize.exit.thread_crit_edge.i, %24, %14
  %30 = phi i8 [ %.pre, %mpd_qresize.exit.mpd_qresize.exit.thread_crit_edge.i ], [ %5, %24 ], [ %5, %14 ]
  %31 = phi i64 [ %.pre21.i, %mpd_qresize.exit.mpd_qresize.exit.thread_crit_edge.i ], [ %16, %24 ], [ %16, %14 ]
  %32 = phi i8 [ %.pre.i, %mpd_qresize.exit.mpd_qresize.exit.thread_crit_edge.i ], [ %.pre20.i, %24 ], [ %.pre20.i, %14 ]
  %33 = and i8 %32, -16
  %34 = and i8 %30, 15
  %35 = or disjoint i8 %34, %33
  store i8 %35, ptr %0, align 8, !tbaa !19
  %36 = getelementptr inbounds nuw i8, ptr %1, i64 8
  %37 = load i64, ptr %36, align 8, !tbaa !7
  %38 = getelementptr inbounds nuw i8, ptr %0, i64 8
  store i64 %37, ptr %38, align 8, !tbaa !7
  %39 = getelementptr inbounds nuw i8, ptr %1, i64 16
  %40 = load i64, ptr %39, align 8, !tbaa !11
  %41 = getelementptr inbounds nuw i8, ptr %0, i64 16
  store i64 %40, ptr %41, align 8, !tbaa !11
  %42 = getelementptr inbounds nuw i8, ptr %0, i64 24
  store i64 %31, ptr %42, align 8, !tbaa !18
  %43 = getelementptr inbounds nuw i8, ptr %0, i64 40
  %44 = load ptr, ptr %43, align 8, !tbaa !17
  %45 = getelementptr inbounds nuw i8, ptr %1, i64 40
  %46 = load ptr, ptr %45, align 8, !tbaa !17
  %47 = load i64, ptr %15, align 8, !tbaa !18
  %48 = shl i64 %47, 3
  tail call void @llvm.memcpy.p0.p0.i64(ptr align 8 %44, ptr align 8 %46, i64 %48, i1 false)
  br label %mpd_qcopy.exit

mpd_qcopy.exit:                                   ; preds = %7, %mpd_qresize.exit.i, %mpd_qresize.exit.thread.i
  %49 = load i8, ptr %0, align 8, !tbaa !19
  %50 = and i8 %49, -15
  %51 = or disjoint i8 %50, 4
  store i8 %51, ptr %0, align 8, !tbaa !19
  %.val = load i64, ptr %2, align 8, !tbaa !15
  %52 = getelementptr i8, ptr %2, i64 40
  %.val10 = load i32, ptr %52, align 8, !tbaa !28
  tail call fastcc void @_mpd_fix_nan(ptr noundef nonnull %0, i64 %.val, i32 %.val10)
  br label %53

53:                                               ; preds = %4, %mpd_qcopy.exit
  %.0 = phi i32 [ 1, %mpd_qcopy.exit ], [ 0, %4 ]
  ret i32 %.0
}